target datalayout = "e-m:e-p270:32:32-p271:32:32-p272:64:64-i64:64-i128:128-f80:128-n8:16:32:64-S128"
target triple = "x86_64-pc-linux-gnu"

%struct.b2Vec2 = type { float, float }
%struct.b2Circle = type { %struct.b2Vec2, float }

; Function Attrs: inlinehint nounwind uwtable
define internal float @b2DistanceSquared(<2 x float> %0, <2 x float> %1) #6 {
  %3 = alloca %struct.b2Vec2, align 4
  %4 = alloca %struct.b2Vec2, align 4
  %5 = alloca %struct.b2Vec2, align 4
  store <2 x float> %0, ptr %3, align 4
  store <2 x float> %1, ptr %4, align 4
  call void @llvm.lifetime.start.p0(i64 8, ptr %5) #9
  %6 = getelementptr inbounds nuw %struct.b2Vec2, ptr %5, i32 0, i32 0
  %7 = getelementptr inbounds nuw %struct.b2Vec2, ptr %4, i32 0, i32 0
  %8 = load float, ptr %7, align 4, !tbaa !30
  %9 = getelementptr inbounds nuw %struct.b2Vec2, ptr %3, i32 0, i32 0
  %10 = load float, ptr %9, align 4, !tbaa !30
  %11 = fsub float %8, %10
  store float %11, ptr %6, align 4, !tbaa !30
  %12 = getelementptr inbounds nuw %struct.b2Vec2, ptr %5, i32 0, i32 1
  %13 = getelementptr inbounds nuw %struct.b2Vec2, ptr %4, i32 0, i32 1
  %14 = load float, ptr %13, align 4, !tbaa !31
  %15 = getelementptr inbounds nuw %struct.b2Vec2, ptr %3, i32 0, i32 1
  %16 = load float, ptr %15, align 4, !tbaa !31
  %17 = fsub float %14, %16
  store float %17, ptr %12, align 4, !tbaa !31
  %18 = getelementptr inbounds nuw %struct.b2Vec2, ptr %5, i32 0, i32 0
  %19 = load float, ptr %18, align 4, !tbaa !30
  %20 = getelementptr inbounds nuw %struct.b2Vec2, ptr %5, i32 0, i32 0
  %21 = load float, ptr %20, align 4, !tbaa !30
  %22 = fmul float %19, %21
  %23 = getelementptr inbounds nuw %struct.b2Vec2, ptr %5, i32 0, i32 1
  %24 = load float, ptr %23, align 4, !tbaa !31
  %25 = getelementptr inbounds nuw %struct.b2Vec2, ptr %5, i32 0, i32 1
  %26 = load float, ptr %25, align 4, !tbaa !31
  %27 = fmul float %24, %26
  %28 = fadd float %22, %27
  call void @llvm.lifetime.end.p0(i64 8, ptr %5) #9
  ret float %28
}

; Function Attrs: nounwind uwtable
define zeroext i1 @b2PointInCircle(<2 x float> %0, ptr noundef %1) #0 {
  %3 = alloca %struct.b2Vec2, align 4
  %4 = alloca ptr, align 8
  %5 = alloca %struct.b2Vec2, align 4
  store <2 x float> %0, ptr %3, align 4
  store ptr %1, ptr %4, align 8, !tbaa !50
  call void @llvm.lifetime.start.p0(i64 8, ptr %5) #9
  %6 = load ptr, ptr %4, align 8, !tbaa !50
  %7 = getelementptr inbounds nuw %struct.b2Circle, ptr %6, i32 0, i32 0
  call void @llvm.memcpy.p0.p0.i64(ptr align 4 %5, ptr align 4 %7, i64 8, i1 false), !tbaa.struct !26
  %8 = load <2 x float>, ptr %3, align 4
  %9 = load <2 x float>, ptr %5, align 4
  %10 = call float @b2DistanceSquared(<2 x float> %8, <2 x float> %9)
  %11 = load ptr, ptr %4, align 8, !tbaa !50
  %12 = getelementptr inbounds nuw %struct.b2Circle, ptr %11, i32 0, i32 1
  %13 = load float, ptr %12, align 4, !tbaa !52
  %14 = load ptr, ptr %4, align 8, !tbaa !50
  %15 = getelementptr inbounds nuw %struct.b2Circle, ptr %14, i32 0, i32 1
  %16 = load float, ptr %15, align 4, !tbaa !52
  %17 = fmul float %13, %16
  %18 = fcmp ole float %10, %17
  call void @llvm.lifetime.end.p0(i64 8, ptr %5) #9
  ret i1 %18
}