; Function Attrs: mustprogress nofree norecurse nosync nounwind willreturn memory(argmem: read) uwtable
define zeroext i1 @b2PointInCircle(<2 x float> %0, ptr noundef readonly captures(none) %1) local_unnamed_addr #8 {
  %.sroa.0.0.copyload = load <2 x float>, ptr %1, align 4
  %3 = fsub <2 x float> %.sroa.0.0.copyload, %0
  %4 = fsub <2 x float> %.sroa.0.0.copyload, %0
  %5 = fmul <2 x float> %3, %3
  %6 = fmul <2 x float> %4, %4
  %shift = shufflevector <2 x float> %6, <2 x float> poison, <2 x i32> <i32 1, i32 poison>
  %7 = fadd <2 x float> %5, %shift
  %8 = extractelement <2 x float> %7, i64 0
  %9 = getelementptr inbounds nuw i8, ptr %1, i64 8
  %10 = load float, ptr %9, align 4, !tbaa !42
  %11 = fmul float %10, %10
  %12 = fcmp ole float %8, %11
  ret i1 %12
}